target datalayout = "e-m:e-p270:32:32-p271:32:32-p272:64:64-i64:64-i128:128-f80:128-n8:16:32:64-S128"
target triple = "x86_64-pc-linux-gnu"

%class.MutexLocker = type { %class.MutexLockerImpl }
%class.MutexLockerImpl = type { ptr }
%class.PathString = type { ptr }

@_ZN5JVMCI22_shared_library_handleE = hidden global ptr null, align 8
@_ZN5JVMCI20_shared_library_pathE = hidden global ptr null, align 8
@JVMCILibPath = external global ptr, align 8
@.str = private unnamed_addr constant [14 x i8] c"jvmcicompiler\00", align 1
@g_assert_poison = external global ptr, align 8
@.str.4 = private unnamed_addr constant [34 x i8] c"src/hotspot/share/jvmci/jvmci.cpp\00", align 1
@.str.5 = private unnamed_addr constant [82 x i8] c"Unable to create path to JVMCI shared library based on value of JVMCILibPath (%s)\00", align 1
@.str.6 = private unnamed_addr constant [46 x i8] c"Unable to create path to JVMCI shared library\00", align 1
@JVMCI_lock = external global ptr, align 8
@.str.7 = private unnamed_addr constant [48 x i8] c"Unable to load JVMCI shared library from %s: %s\00", align 1
@JVMCITraceLevel = external global i64, align 8
@JVMCIEventLogLevel = external global i64, align 8
@.str.8 = private unnamed_addr constant [36 x i8] c"loaded JVMCI shared library from %s\00", align 1
@_ZN9Arguments22_sun_boot_library_pathE = external global ptr, align 8

; Function Attrs: mustprogress nounwind uwtable
define linkonce_odr hidden noundef ptr @_ZNK10PathString5valueEv(ptr noundef nonnull align 8 dereferenceable(8) %0) #1 comdat align 2 {
  %2 = alloca ptr, align 8
  store ptr %0, ptr %2, align 8
  %3 = load ptr, ptr %2, align 8
  %4 = getelementptr inbounds %class.PathString, ptr %3, i32 0, i32 0
  %5 = load ptr, ptr %4, align 8
  ret ptr %5
}

; Function Attrs: mustprogress nounwind uwtable
define linkonce_odr hidden noundef ptr @_ZNK14SystemProperty5valueEv(ptr noundef nonnull align 8 dereferenceable(26) %0) #1 comdat align 2 {
  %2 = alloca ptr, align 8
  store ptr %0, ptr %2, align 8
  %3 = load ptr, ptr %2, align 8
  %4 = call noundef ptr @_ZNK10PathString5valueEv(ptr noundef nonnull align 8 dereferenceable(8) %3)
  ret ptr %4
}

; Function Attrs: mustprogress nounwind uwtable
define linkonce_odr hidden void @_ZN15MutexLockerImplD2Ev(ptr noundef nonnull align 8 dereferenceable(8) %0) unnamed_addr #1 comdat align 2 {
  %2 = alloca ptr, align 8
  store ptr %0, ptr %2, align 8
  %3 = load ptr, ptr %2, align 8
  %4 = getelementptr inbounds %class.MutexLockerImpl, ptr %3, i32 0, i32 0
  %5 = load ptr, ptr %4, align 8
  %6 = icmp ne ptr %5, null
  br i1 %6, label %7, label %10

7:                                                ; preds = %1
  %8 = getelementptr inbounds %class.MutexLockerImpl, ptr %3, i32 0, i32 0
  %9 = load ptr, ptr %8, align 8
  call void @_ZN5Mutex6unlockEv(ptr noundef nonnull align 8 dereferenceable(104) %9)
  br label %10

10:                                               ; preds = %7, %1
  ret void
}

; Function Attrs: mustprogress nounwind uwtable
define linkonce_odr hidden noundef ptr @_ZN9Arguments11get_dll_dirEv() #1 comdat align 2 {
  %1 = load ptr, ptr @_ZN9Arguments22_sun_boot_library_pathE, align 8
  %2 = call noundef ptr @_ZNK14SystemProperty5valueEv(ptr noundef nonnull align 8 dereferenceable(26) %1)
  ret ptr %2
}

; Function Attrs: mustprogress nounwind uwtable
define linkonce_odr hidden void @_ZN15MutexLockerImplC2EP5MutexNS0_18SafepointCheckFlagE(ptr noundef nonnull align 8 dereferenceable(8) %0, ptr noundef %1, i32 noundef %2) unnamed_addr #1 comdat align 2 {
  %4 = alloca ptr, align 8
  %5 = alloca ptr, align 8
  %6 = alloca i32, align 4
  %7 = alloca i8, align 1
  store ptr %0, ptr %4, align 8
  store ptr %1, ptr %5, align 8
  store i32 %2, ptr %6, align 4
  %8 = load ptr, ptr %4, align 8
  %9 = getelementptr inbounds %class.MutexLockerImpl, ptr %8, i32 0, i32 0
  %10 = load ptr, ptr %5, align 8
  store ptr %10, ptr %9, align 8
  %11 = load i32, ptr %6, align 4
  %12 = icmp eq i32 %11, 1
  %13 = zext i1 %12 to i8
  store i8 %13, ptr %7, align 1
  %14 = getelementptr inbounds %class.MutexLockerImpl, ptr %8, i32 0, i32 0
  %15 = load ptr, ptr %14, align 8
  %16 = icmp ne ptr %15, null
  br i1 %16, label %17, label %27

17:                                               ; preds = %3
  %18 = load i8, ptr %7, align 1
  %19 = trunc i8 %18 to i1
  br i1 %19, label %20, label %23

20:                                               ; preds = %17
  %21 = getelementptr inbounds %class.MutexLockerImpl, ptr %8, i32 0, i32 0
  %22 = load ptr, ptr %21, align 8
  call void @_ZN5Mutex28lock_without_safepoint_checkEv(ptr noundef nonnull align 8 dereferenceable(104) %22)
  br label %26

23:                                               ; preds = %17
  %24 = getelementptr inbounds %class.MutexLockerImpl, ptr %8, i32 0, i32 0
  %25 = load ptr, ptr %24, align 8
  call void @_ZN5Mutex4lockEv(ptr noundef nonnull align 8 dereferenceable(104) %25)
  br label %26

26:                                               ; preds = %23, %20
  br label %27

27:                                               ; preds = %26, %3
  ret void
}

; Function Attrs: mustprogress nounwind uwtable
define linkonce_odr hidden void @_ZN11MutexLockerD2Ev(ptr noundef nonnull align 8 dereferenceable(8) %0) unnamed_addr #1 comdat align 2 {
  %2 = alloca ptr, align 8
  store ptr %0, ptr %2, align 8
  %3 = load ptr, ptr %2, align 8
  call void @_ZN15MutexLockerImplD2Ev(ptr noundef nonnull align 8 dereferenceable(8) %3) #9
  ret void
}

; Function Attrs: mustprogress nounwind uwtable
define hidden noundef zeroext i1 @_ZN5JVMCI23get_shared_library_pathEPcmb(ptr noundef %0, i64 noundef %1, i1 noundef zeroext %2) #1 align 2 {
  %4 = alloca i1, align 1
  %5 = alloca ptr, align 8
  %6 = alloca i64, align 8
  %7 = alloca i8, align 1
  store ptr %0, ptr %5, align 8
  store i64 %1, ptr %6, align 8
  %8 = zext i1 %2 to i8
  store i8 %8, ptr %7, align 1
  %9 = load ptr, ptr @JVMCILibPath, align 8
  %10 = icmp ne ptr %9, null
  br i1 %10, label %11, label %26

11:                                               ; preds = %3
  %12 = load ptr, ptr %5, align 8
  %13 = load i64, ptr %6, align 8
  %14 = load ptr, ptr @JVMCILibPath, align 8
  %15 = call noundef zeroext i1 @_ZN2os14dll_locate_libEPcmPKcS2_(ptr noundef %12, i64 noundef %13, ptr noundef %14, ptr noundef @.str)
  br i1 %15, label %25, label %16

16:                                               ; preds = %11
  %17 = load i8, ptr %7, align 1
  %18 = trunc i8 %17 to i1
  br i1 %18, label %20, label %19

19:                                               ; preds = %16
  store i1 false, ptr %4, align 1
  br label %41

20:                                               ; preds = %16
  br label %21

21:                                               ; preds = %20
  %22 = load ptr, ptr @g_assert_poison, align 8
  store i8 88, ptr %22, align 1
  %23 = load ptr, ptr @JVMCILibPath, align 8
  call void (i32, ptr, i32, ptr, ...) @_Z12report_fatal11VMErrorTypePKciS1_z(i32 noundef -536870912, ptr noundef @.str.4, i32 noundef 105, ptr noundef @.str.5, ptr noundef %23) #8
  unreachable

24:                                               ; No predecessors!
  br label %25

25:                                               ; preds = %24, %11
  br label %40

26:                                               ; preds = %3
  %27 = load ptr, ptr %5, align 8
  %28 = load i64, ptr %6, align 8
  %29 = call noundef ptr @_ZN9Arguments11get_dll_dirEv()
  %30 = call noundef zeroext i1 @_ZN2os14dll_locate_libEPcmPKcS2_(ptr noundef %27, i64 noundef %28, ptr noundef %29, ptr noundef @.str)
  br i1 %30, label %39, label %31

31:                                               ; preds = %26
  %32 = load i8, ptr %7, align 1
  %33 = trunc i8 %32 to i1
  br i1 %33, label %35, label %34

34:                                               ; preds = %31
  store i1 false, ptr %4, align 1
  br label %41

35:                                               ; preds = %31
  br label %36

36:                                               ; preds = %35
  %37 = load ptr, ptr @g_assert_poison, align 8
  store i8 88, ptr %37, align 1
  call void (i32, ptr, i32, ptr, ...) @_Z12report_fatal11VMErrorTypePKciS1_z(i32 noundef -536870912, ptr noundef @.str.4, i32 noundef 112, ptr noundef @.str.6) #8
  unreachable

38:                                               ; No predecessors!
  br label %39

39:                                               ; preds = %38, %26
  br label %40

40:                                               ; preds = %39, %25
  store i1 true, ptr %4, align 1
  br label %41

41:                                               ; preds = %40, %34, %19
  %42 = load i1, ptr %4, align 1
  ret i1 %42
}

; Function Attrs: mustprogress nounwind uwtable
define linkonce_odr hidden void @_ZN11MutexLockerC2EP5MutexNS0_18SafepointCheckFlagE(ptr noundef nonnull align 8 dereferenceable(8) %0, ptr noundef %1, i32 noundef %2) unnamed_addr #1 comdat align 2 {
  %4 = alloca ptr, align 8
  %5 = alloca ptr, align 8
  %6 = alloca i32, align 4
  store ptr %0, ptr %4, align 8
  store ptr %1, ptr %5, align 8
  store i32 %2, ptr %6, align 4
  %7 = load ptr, ptr %4, align 8
  %8 = load ptr, ptr %5, align 8
  %9 = load i32, ptr %6, align 4
  call void @_ZN15MutexLockerImplC2EP5MutexNS0_18SafepointCheckFlagE(ptr noundef nonnull align 8 dereferenceable(8) %7, ptr noundef %8, i32 noundef %9)
  ret void
}

; Function Attrs: mustprogress nounwind uwtable
define hidden noundef ptr @_ZN5JVMCI18get_shared_libraryERPcb(ptr noundef nonnull align 8 dereferenceable(8) %0, i1 noundef zeroext %1) #1 align 2 {
  %3 = alloca ptr, align 8
  %4 = alloca ptr, align 8
  %5 = alloca i8, align 1
  %6 = alloca ptr, align 8
  %7 = alloca %class.MutexLocker, align 8
  %8 = alloca [4097 x i8], align 16
  %9 = alloca [1024 x i8], align 16
  %10 = alloca ptr, align 8
  store ptr %0, ptr %4, align 8
  %11 = zext i1 %1 to i8
  store i8 %11, ptr %5, align 1
  %12 = load ptr, ptr @_ZN5JVMCI22_shared_library_handleE, align 8
  store ptr %12, ptr %6, align 8
  %13 = load ptr, ptr %6, align 8
  %14 = icmp ne ptr %13, null
  br i1 %14, label %18, label %15

15:                                               ; preds = %2
  %16 = load i8, ptr %5, align 1
  %17 = trunc i8 %16 to i1
  br i1 %17, label %22, label %18

18:                                               ; preds = %15, %2
  %19 = load ptr, ptr @_ZN5JVMCI20_shared_library_pathE, align 8
  %20 = load ptr, ptr %4, align 8
  store ptr %19, ptr %20, align 8
  %21 = load ptr, ptr %6, align 8
  store ptr %21, ptr %3, align 8
  br label %59

22:                                               ; preds = %15
  %23 = load ptr, ptr @JVMCI_lock, align 8
  call void @_ZN11MutexLockerC2EP5MutexNS0_18SafepointCheckFlagE(ptr noundef nonnull align 8 dereferenceable(8) %7, ptr noundef %23, i32 noundef 0)
  %24 = load ptr, ptr %4, align 8
  store ptr null, ptr %24, align 8
  %25 = load ptr, ptr @_ZN5JVMCI22_shared_library_handleE, align 8
  %26 = icmp eq ptr %25, null
  br i1 %26, label %27, label %55

27:                                               ; preds = %22
  %28 = getelementptr inbounds [4097 x i8], ptr %8, i64 0, i64 0
  %29 = call noundef zeroext i1 @_ZN5JVMCI23get_shared_library_pathEPcmb(ptr noundef %28, i64 noundef 4097, i1 noundef zeroext true)
  %30 = getelementptr inbounds [4097 x i8], ptr %8, i64 0, i64 0
  %31 = getelementptr inbounds [1024 x i8], ptr %9, i64 0, i64 0
  %32 = call noundef ptr @_ZN2os8dll_loadEPKcPci(ptr noundef %30, ptr noundef %31, i32 noundef 1024)
  store ptr %32, ptr %10, align 8
  %33 = load ptr, ptr %10, align 8
  %34 = icmp eq ptr %33, null
  br i1 %34, label %35, label %42

35:                                               ; preds = %27
  br label %36

36:                                               ; preds = %35
  %37 = load ptr, ptr @g_assert_poison, align 8
  store i8 88, ptr %37, align 1
  %38 = getelementptr inbounds [4097 x i8], ptr %8, i64 0, i64 0
  %39 = getelementptr inbounds [1024 x i8], ptr %9, i64 0, i64 0
  call void (i32, ptr, i32, ptr, ...) @_Z12report_fatal11VMErrorTypePKciS1_z(i32 noundef -536870912, ptr noundef @.str.4, i32 noundef 141, ptr noundef @.str.7, ptr noundef %38, ptr noundef %39) #8
  unreachable

40:                                               ; No predecessors!
  br label %41

41:                                               ; preds = %40
  br label %42

42:                                               ; preds = %41, %27
  %43 = load ptr, ptr %10, align 8
  store ptr %43, ptr @_ZN5JVMCI22_shared_library_handleE, align 8
  %44 = getelementptr inbounds [4097 x i8], ptr %8, i64 0, i64 0
  %45 = call noundef ptr @_ZN2os6strdupEPKc8MEMFLAGS(ptr noundef %44, i8 noundef zeroext 9)
  store ptr %45, ptr @_ZN5JVMCI20_shared_library_pathE, align 8
  %46 = load i64, ptr @JVMCITraceLevel, align 8
  %47 = icmp slt i64 %46, 1
  br i1 %47, label %48, label %52

48:                                               ; preds = %42
  %49 = load i64, ptr @JVMCIEventLogLevel, align 8
  %50 = icmp slt i64 %49, 1
  br i1 %50, label %51, label %52

51:                                               ; preds = %48
  br label %54

52:                                               ; preds = %48, %42
  %53 = getelementptr inbounds [4097 x i8], ptr %8, i64 0, i64 0
  call void (ptr, ...) @_ZN5JVMCI6event1EPKcz(ptr noundef @.str.8, ptr noundef %53)
  br label %54

54:                                               ; preds = %52, %51
  br label %55

55:                                               ; preds = %54, %22
  %56 = load ptr, ptr @_ZN5JVMCI20_shared_library_pathE, align 8
  %57 = load ptr, ptr %4, align 8
  store ptr %56, ptr %57, align 8
  %58 = load ptr, ptr @_ZN5JVMCI22_shared_library_handleE, align 8
  store ptr %58, ptr %3, align 8
  call void @_ZN11MutexLockerD2Ev(ptr noundef nonnull align 8 dereferenceable(8) %7) #9
  br label %59

59:                                               ; preds = %55, %18
  %60 = load ptr, ptr %3, align 8
  ret ptr %60
}